; Function Attrs: nounwind uwtable
define hidden void @zim_DOMElement_getAttributeNodeNS(ptr nocapture noundef readonly %0, ptr noundef %1) local_unnamed_addr #0 {
  %3 = alloca i64, align 8
  %4 = alloca i64, align 8
  %5 = alloca ptr, align 8
  %6 = alloca ptr, align 8
  %7 = getelementptr inbounds i8, ptr %0, i64 44
  %8 = load i32, ptr %7, align 4
  %9 = call i32 (i32, ptr, ...) @zend_parse_parameters(i32 noundef %8, ptr noundef nonnull @.str.11, ptr noundef nonnull %5, ptr noundef nonnull %3, ptr noundef nonnull %6, ptr noundef nonnull %4) #8
  %10 = icmp eq i32 %9, -1
  br i1 %10, label %11, label %14

11:                                               ; preds = %2
  %12 = load ptr, ptr getelementptr inbounds (%struct._zend_executor_globals, ptr @executor_globals, i64 0, i32 50), align 8
  %13 = icmp ne ptr %12, null
  call void @llvm.assume(i1 %13)
  br label %50

14:                                               ; preds = %2
  %15 = getelementptr inbounds i8, ptr %0, i64 32
  %16 = load ptr, ptr %15, align 8
  %17 = getelementptr inbounds i8, ptr %16, i64 -24
  %18 = load ptr, ptr %17, align 8
  %19 = icmp eq ptr %18, null
  br i1 %19, label %20, label %28

20:                                               ; preds = %14
  %21 = getelementptr inbounds i8, ptr %16, i64 16
  %22 = load ptr, ptr %21, align 8
  %23 = getelementptr inbounds i8, ptr %22, i64 8
  %24 = load ptr, ptr %23, align 8
  %25 = getelementptr inbounds i8, ptr %24, i64 24
  call void (ptr, ptr, ...) @zend_throw_error(ptr noundef null, ptr noundef nonnull @.str.5, ptr noundef nonnull %25) #8
  %26 = load ptr, ptr getelementptr inbounds (%struct._zend_executor_globals, ptr @executor_globals, i64 0, i32 50), align 8
  %27 = icmp ne ptr %26, null
  call void @llvm.assume(i1 %27)
  br label %50

28:                                               ; preds = %14
  %29 = load ptr, ptr %18, align 8
  %30 = load ptr, ptr %6, align 8
  %31 = load ptr, ptr %5, align 8
  %32 = call ptr @xmlHasNsProp(ptr noundef %29, ptr noundef %30, ptr noundef %31) #8
  %33 = icmp eq ptr %32, null
  br i1 %33, label %34, label %48

34:                                               ; preds = %28
  %35 = load ptr, ptr %5, align 8
  %36 = call i32 @xmlStrEqual(ptr noundef %35, ptr noundef nonnull @.str.12) #8
  %.not = icmp eq i32 %36, 0
  br i1 %.not, label %46, label %37

37:                                               ; preds = %34
  %38 = load ptr, ptr %6, align 8
  %39 = call ptr @dom_get_nsdecl(ptr noundef %29, ptr noundef %38) #8
  %.not23 = icmp eq ptr %39, null
  br i1 %.not23, label %44, label %40

40:                                               ; preds = %37
  %41 = load i32, ptr %16, align 4
  %42 = add i32 %41, 1
  store i32 %42, ptr %16, align 4
  %43 = call ptr @php_dom_create_fake_namespace_decl(ptr noundef %29, ptr noundef nonnull %39, ptr noundef %1, ptr noundef nonnull %17) #8
  br label %50

44:                                               ; preds = %37
  %45 = getelementptr inbounds i8, ptr %1, i64 8
  store i32 1, ptr %45, align 8
  br label %50

46:                                               ; preds = %34
  %47 = getelementptr inbounds i8, ptr %1, i64 8
  store i32 1, ptr %47, align 8
  br label %50

48:                                               ; preds = %28
  %49 = call zeroext i1 @php_dom_create_object(ptr noundef nonnull %32, ptr noundef %1, ptr noundef nonnull %17) #8
  br label %50

50:                                               ; preds = %48, %40, %46, %44, %20, %11
  ret void
}